; Function Attrs: nounwind uwtable
define hidden ptr @SDL_EGL_GetWindowSurface_REAL(ptr noundef %0) local_unnamed_addr #0 {
  %2 = load ptr, ptr @_this, align 8
  %.not = icmp eq ptr %2, null
  br i1 %.not, label %3, label %5

3:                                                ; preds = %1
  %4 = tail call zeroext i1 (ptr, ...) @SDL_SetError_REAL(ptr noundef nonnull @.str.1) #19
  br label %15

5:                                                ; preds = %1
  %6 = getelementptr inbounds nuw i8, ptr %2, i64 1672
  %7 = load ptr, ptr %6, align 8
  %.not4 = icmp eq ptr %7, null
  br i1 %.not4, label %8, label %10

8:                                                ; preds = %5
  %9 = tail call zeroext i1 (ptr, ...) @SDL_SetError_REAL(ptr noundef nonnull @.str.83) #19
  br label %15

10:                                               ; preds = %5
  %11 = getelementptr inbounds nuw i8, ptr %2, i64 440
  %12 = load ptr, ptr %11, align 8
  %.not5 = icmp eq ptr %12, null
  br i1 %.not5, label %15, label %13

13:                                               ; preds = %10
  %14 = tail call ptr %12(ptr noundef nonnull %2, ptr noundef %0) #19
  br label %15

15:                                               ; preds = %10, %13, %8, %3
  %.0 = phi ptr [ %14, %13 ], [ null, %8 ], [ null, %3 ], [ null, %10 ]
  ret ptr %.0
}